; Function Attrs: null_pointer_is_valid sspstrong uwtable
define internal fastcc noundef i32 @dissect_rsl_ie_resource_inf(ptr noundef %0, ptr noundef %1, i32 noundef %2) unnamed_addr #0 {
  %4 = alloca ptr, align 8
  call void @llvm.lifetime.start.p0(i64 8, ptr nonnull %4) #6
  %5 = load i32, ptr @ett_ie_resource_inf, align 4
  %6 = call ptr @proto_tree_add_subtree(ptr noundef %1, ptr noundef %0, i32 noundef %2, i32 noundef 0, i32 noundef %5, ptr noundef nonnull %4, ptr noundef nonnull @.str.780)
  %7 = load i32, ptr @hf_rsl_ie_id, align 4
  %8 = call ptr @proto_tree_add_item(ptr noundef %6, i32 noundef %7, ptr noundef %0, i32 noundef %2, i32 noundef 1, i32 noundef 0)
  %9 = add i32 %2, 1
  %10 = call zeroext i8 @tvb_get_uint8(ptr noundef %0, i32 noundef %9)
  %11 = zext i8 %10 to i32
  %12 = load ptr, ptr %4, align 8
  %13 = add nuw nsw i32 %11, 2
  call void @proto_item_set_len(ptr noundef %12, i32 noundef %13)
  %14 = load i32, ptr @hf_rsl_ie_length, align 4
  %15 = call ptr @proto_tree_add_item(ptr noundef %6, i32 noundef %14, ptr noundef %0, i32 noundef %9, i32 noundef 1, i32 noundef 0)
  %16 = add i32 %2, 2
  %.not1 = icmp eq i8 %10, 0
  br i1 %.not1, label %._crit_edge, label %.lr.ph

.lr.ph:                                           ; preds = %3, %.lr.ph
  %.0383 = phi i32 [ %27, %.lr.ph ], [ %11, %3 ]
  %.0392 = phi i32 [ %26, %.lr.ph ], [ %16, %3 ]
  %17 = load i32, ptr @hf_rsl_ch_no_Cbits, align 4
  %18 = call ptr @proto_tree_add_item(ptr noundef %6, i32 noundef %17, ptr noundef %0, i32 noundef %.0392, i32 noundef 1, i32 noundef 0)
  %19 = load i32, ptr @hf_rsl_ch_no_TN, align 4
  %20 = call ptr @proto_tree_add_item(ptr noundef %6, i32 noundef %19, ptr noundef %0, i32 noundef %.0392, i32 noundef 1, i32 noundef 0)
  %21 = add i32 %.0392, 1
  %22 = load i32, ptr @hf_rsl_interf_band, align 4
  %23 = call ptr @proto_tree_add_item(ptr noundef %6, i32 noundef %22, ptr noundef %0, i32 noundef %21, i32 noundef 1, i32 noundef 0)
  %24 = load i32, ptr @hf_rsl_interf_band_reserved, align 4
  %25 = call ptr @proto_tree_add_item(ptr noundef %6, i32 noundef %24, ptr noundef %0, i32 noundef %21, i32 noundef 1, i32 noundef 0)
  %26 = add i32 %.0392, 2
  %27 = add i32 %.0383, -2
  %.not = icmp eq i32 %27, 0
  br i1 %.not, label %._crit_edge, label %.lr.ph, !llvm.loop !10

._crit_edge:                                      ; preds = %.lr.ph, %3
  call void @llvm.lifetime.end.p0(i64 8, ptr nonnull %4) #6
  ret i32 %16
}